target datalayout = "e-m:e-p270:32:32-p271:32:32-p272:64:64-i64:64-i128:128-f80:128-n8:16:32:64-S128"
target triple = "x86_64-pc-linux-gnu"

%class.ZErrno = type { i32 }
%class.ZPhysicalMemoryBacking = type <{ i32, [4 x i8], i64, i64, i64, i64, i8, [7 x i8] }>

; Function Attrs: mustprogress nounwind uwtable
define linkonce_odr hidden noundef i64 @_Z10to_zoffsetm(i64 noundef %0) #1 comdat {
  %2 = alloca i64, align 8
  store i64 %0, ptr %2, align 8
  %3 = load i64, ptr %2, align 8
  ret i64 %3
}

; Function Attrs: mustprogress nounwind uwtable
define linkonce_odr hidden noundef nonnull align 8 dereferenceable(8) ptr @_ZpLR7zoffsetm(ptr noundef nonnull align 8 dereferenceable(8) %0, i64 noundef %1) #1 comdat {
  %3 = alloca ptr, align 8
  %4 = alloca i64, align 8
  store ptr %0, ptr %3, align 8
  store i64 %1, ptr %4, align 8
  %5 = load ptr, ptr %3, align 8
  %6 = load i64, ptr %5, align 8
  %7 = call noundef i64 @_Z6untype7zoffset(i64 noundef %6)
  %8 = load i64, ptr %4, align 8
  %9 = add i64 %7, %8
  %10 = call noundef i64 @_Z10to_zoffsetm(i64 noundef %9)
  %11 = load ptr, ptr %3, align 8
  store i64 %10, ptr %11, align 8
  %12 = load ptr, ptr %3, align 8
  ret ptr %12
}

; Function Attrs: mustprogress nounwind uwtable
define linkonce_odr hidden noundef i64 @_Z6untype7zoffset(i64 noundef %0) #1 comdat {
  %2 = alloca i64, align 8
  %3 = alloca i64, align 8
  store i64 %0, ptr %2, align 8
  %4 = load i64, ptr %2, align 8
  store i64 %4, ptr %3, align 8
  %5 = load i64, ptr %3, align 8
  ret i64 %5
}

; Function Attrs: mustprogress nounwind uwtable
define linkonce_odr hidden noundef i64 @_Zpl7zoffsetm(i64 noundef %0, i64 noundef %1) #1 comdat {
  %3 = alloca i64, align 8
  %4 = alloca i64, align 8
  store i64 %0, ptr %3, align 8
  store i64 %1, ptr %4, align 8
  %5 = load i64, ptr %3, align 8
  %6 = call noundef i64 @_Z6untype7zoffset(i64 noundef %5)
  %7 = load i64, ptr %4, align 8
  %8 = add i64 %6, %7
  %9 = call noundef i64 @_Z10to_zoffsetm(i64 noundef %8)
  ret i64 %9
}

; Function Attrs: mustprogress nounwind uwtable
define hidden i32 @_ZNK22ZPhysicalMemoryBacking23fallocate_compat_pwriteE7zoffsetm(ptr noundef nonnull align 8 dereferenceable(41) %0, i64 noundef %1, i64 noundef %2) #1 align 2 {
  %4 = alloca %class.ZErrno, align 4
  %5 = alloca ptr, align 8
  %6 = alloca i64, align 8
  %7 = alloca i64, align 8
  %8 = alloca i8, align 1
  %9 = alloca i64, align 8
  store ptr %0, ptr %5, align 8
  store i64 %1, ptr %6, align 8
  store i64 %2, ptr %7, align 8
  %10 = load ptr, ptr %5, align 8
  store i8 0, ptr %8, align 1
  %11 = load i64, ptr %6, align 8
  store i64 %11, ptr %9, align 8
  br label %12

12:                                               ; preds = %29, %3
  %13 = load i64, ptr %9, align 8
  %14 = load i64, ptr %6, align 8
  %15 = load i64, ptr %7, align 8
  %16 = call noundef i64 @_Zpl7zoffsetm(i64 noundef %14, i64 noundef %15)
  %17 = icmp ult i64 %13, %16
  br i1 %17, label %18, label %33

18:                                               ; preds = %12
  %19 = getelementptr inbounds %class.ZPhysicalMemoryBacking, ptr %10, i32 0, i32 0
  %20 = load i32, ptr %19, align 8
  %21 = load i64, ptr %9, align 8
  %22 = call noundef i64 @_Z6untype7zoffset(i64 noundef %21)
  %23 = call i64 @pwrite64(i32 noundef %20, ptr noundef %8, i64 noundef 1, i64 noundef %22)
  %24 = icmp eq i64 %23, -1
  br i1 %24, label %25, label %28

25:                                               ; preds = %18
  %26 = call ptr @__errno_location() #9
  %27 = load i32, ptr %26, align 4
  call void @_ZN6ZErrnoC1Ei(ptr noundef nonnull align 4 dereferenceable(4) %4, i32 noundef %27)
  br label %34

28:                                               ; preds = %18
  br label %29

29:                                               ; preds = %28
  %30 = getelementptr inbounds %class.ZPhysicalMemoryBacking, ptr %10, i32 0, i32 4
  %31 = load i64, ptr %30, align 8
  %32 = call noundef nonnull align 8 dereferenceable(8) ptr @_ZpLR7zoffsetm(ptr noundef nonnull align 8 dereferenceable(8) %9, i64 noundef %31)
  br label %12, !llvm.loop !9

33:                                               ; preds = %12
  call void @_ZN6ZErrnoC1Ei(ptr noundef nonnull align 4 dereferenceable(4) %4, i32 noundef 0)
  br label %34

34:                                               ; preds = %33, %25
  %35 = getelementptr inbounds %class.ZErrno, ptr %4, i32 0, i32 0
  %36 = load i32, ptr %35, align 4
  ret i32 %36
}