; Function Attrs: mustprogress nounwind uwtable
define hidden i32 @_ZNK22ZPhysicalMemoryBacking23fallocate_compat_pwriteE7zoffsetm(ptr nocapture noundef nonnull readonly align 8 dereferenceable(41) %0, i64 noundef %1, i64 noundef %2) local_unnamed_addr #0 align 2 {
  %4 = alloca %class.ZErrno, align 4
  %5 = alloca i8, align 1
  store i8 0, ptr %5, align 1
  %6 = add i64 %2, %1
  %7 = icmp ugt i64 %6, %1
  br i1 %7, label %.lr.ph, label %._crit_edge

.lr.ph:                                           ; preds = %3
  %8 = getelementptr inbounds i8, ptr %0, i64 24
  br label %9

9:                                                ; preds = %.lr.ph, %16
  %.05 = phi i64 [ %1, %.lr.ph ], [ %18, %16 ]
  %10 = load i32, ptr %0, align 8
  %11 = call i64 @pwrite64(i32 noundef %10, ptr noundef nonnull %5, i64 noundef 1, i64 noundef %.05) #12
  %12 = icmp eq i64 %11, -1
  br i1 %12, label %13, label %16

13:                                               ; preds = %9
  %14 = tail call ptr @__errno_location() #13
  %15 = load i32, ptr %14, align 4
  br label %._crit_edge

16:                                               ; preds = %9
  %17 = load i64, ptr %8, align 8
  %18 = add i64 %17, %.05
  %19 = icmp ult i64 %18, %6
  br i1 %19, label %9, label %._crit_edge, !llvm.loop !9

._crit_edge:                                      ; preds = %16, %3, %13
  %.sink = phi i32 [ %15, %13 ], [ 0, %3 ], [ 0, %16 ]
  call void @_ZN6ZErrnoC1Ei(ptr noundef nonnull align 4 dereferenceable(4) %4, i32 noundef %.sink) #12
  %20 = load i32, ptr %4, align 4
  ret i32 %20
}